; Function Attrs: nounwind uwtable
define void @CRYPTO_cfb128_1_encrypt(ptr noundef readonly captures(none) %0, ptr noundef captures(none) %1, i64 noundef %2, ptr noundef %3, ptr noundef %4, ptr noundef readnone captures(none) %5, i32 noundef %6, ptr noundef readonly captures(none) %7) local_unnamed_addr #0 {
  %9 = alloca [33 x i8], align 16
  %.not17 = icmp eq i64 %2, 0
  br i1 %.not17, label %._crit_edge, label %.lr.ph

.lr.ph:                                           ; preds = %8
  %.not.i = icmp eq i32 %6, 0
  %10 = getelementptr inbounds nuw i8, ptr %9, i64 16
  br i1 %.not.i, label %.lr.ph.split.us, label %.lr.ph.split

.lr.ph.split.us:                                  ; preds = %.lr.ph, %cfbr_encrypt_block.exit.us
  %.016.us = phi i64 [ %39, %cfbr_encrypt_block.exit.us ], [ 0, %.lr.ph ]
  %11 = lshr i64 %.016.us, 3
  %12 = getelementptr inbounds nuw i8, ptr %0, i64 %11
  %13 = load i8, ptr %12, align 1, !tbaa !7
  %14 = zext i8 %13 to i32
  %15 = trunc i64 %.016.us to i32
  %16 = and i32 %15, 7
  %17 = xor i32 %16, 7
  %18 = shl nuw nsw i32 1, %17
  %19 = and i32 %18, %14
  %.not.us = icmp eq i32 %19, 0
  %20 = select i1 %.not.us, i8 0, i8 -128
  call void @llvm.lifetime.start.p0(i64 33, ptr nonnull %9) #4
  call void @llvm.memcpy.p0.p0.i64(ptr noundef nonnull align 16 dereferenceable(16) %9, ptr noundef nonnull align 1 dereferenceable(16) %4, i64 16, i1 false)
  tail call void %7(ptr noundef nonnull %4, ptr noundef nonnull %4, ptr noundef %3) #4
  %21 = load i8, ptr %4, align 1, !tbaa !7
  store i8 %20, ptr %10, align 16, !tbaa !7
  %.pre20 = load i8, ptr %9, align 16, !tbaa !7
  br label %22

22:                                               ; preds = %.lr.ph.split.us, %22
  %23 = phi i8 [ %.pre20, %.lr.ph.split.us ], [ %26, %22 ]
  %indvars.iv.i.us = phi i64 [ 0, %.lr.ph.split.us ], [ %24, %22 ]
  %24 = add nuw nsw i64 %indvars.iv.i.us, 1
  %25 = getelementptr inbounds nuw [33 x i8], ptr %9, i64 0, i64 %24
  %26 = load i8, ptr %25, align 1, !tbaa !7
  %27 = tail call i8 @llvm.fshl.i8(i8 %23, i8 %26, i8 1)
  %28 = getelementptr inbounds nuw i8, ptr %4, i64 %indvars.iv.i.us
  store i8 %27, ptr %28, align 1, !tbaa !7
  %exitcond.not.i.us = icmp eq i64 %24, 16
  br i1 %exitcond.not.i.us, label %cfbr_encrypt_block.exit.us, label %22, !llvm.loop !19

cfbr_encrypt_block.exit.us:                       ; preds = %22
  call void @llvm.lifetime.end.p0(i64 33, ptr nonnull %9) #4
  %29 = getelementptr inbounds nuw i8, ptr %1, i64 %11
  %30 = load i8, ptr %29, align 1, !tbaa !7
  %31 = zext i8 %30 to i32
  %32 = xor i32 %18, -1
  %33 = and i32 %31, %32
  %.masked = and i8 %21, -128
  %34 = xor i8 %.masked, %20
  %35 = zext i8 %34 to i32
  %36 = lshr exact i32 %35, %16
  %37 = or i32 %33, %36
  %38 = trunc nuw i32 %37 to i8
  store i8 %38, ptr %29, align 1, !tbaa !7
  %39 = add nuw i64 %.016.us, 1
  %exitcond19.not = icmp eq i64 %39, %2
  br i1 %exitcond19.not, label %._crit_edge, label %.lr.ph.split.us, !llvm.loop !20

.lr.ph.split:                                     ; preds = %.lr.ph, %cfbr_encrypt_block.exit
  %.016 = phi i64 [ %69, %cfbr_encrypt_block.exit ], [ 0, %.lr.ph ]
  %40 = lshr i64 %.016, 3
  %41 = getelementptr inbounds nuw i8, ptr %0, i64 %40
  %42 = load i8, ptr %41, align 1, !tbaa !7
  %43 = zext i8 %42 to i32
  %44 = trunc i64 %.016 to i32
  %45 = and i32 %44, 7
  %46 = xor i32 %45, 7
  %47 = shl nuw nsw i32 1, %46
  %48 = and i32 %47, %43
  %.not = icmp eq i32 %48, 0
  %49 = select i1 %.not, i8 0, i8 -128
  call void @llvm.lifetime.start.p0(i64 33, ptr nonnull %9) #4
  call void @llvm.memcpy.p0.p0.i64(ptr noundef nonnull align 16 dereferenceable(16) %9, ptr noundef nonnull align 1 dereferenceable(16) %4, i64 16, i1 false)
  tail call void %7(ptr noundef nonnull %4, ptr noundef nonnull %4, ptr noundef %3) #4
  %50 = load i8, ptr %4, align 1, !tbaa !7
  %51 = xor i8 %50, %49
  store i8 %51, ptr %10, align 16, !tbaa !7
  %.pre = load i8, ptr %9, align 16, !tbaa !7
  br label %52

52:                                               ; preds = %52, %.lr.ph.split
  %53 = phi i8 [ %.pre, %.lr.ph.split ], [ %56, %52 ]
  %indvars.iv.i = phi i64 [ 0, %.lr.ph.split ], [ %54, %52 ]
  %54 = add nuw nsw i64 %indvars.iv.i, 1
  %55 = getelementptr inbounds nuw [33 x i8], ptr %9, i64 0, i64 %54
  %56 = load i8, ptr %55, align 1, !tbaa !7
  %57 = tail call i8 @llvm.fshl.i8(i8 %53, i8 %56, i8 1)
  %58 = getelementptr inbounds nuw i8, ptr %4, i64 %indvars.iv.i
  store i8 %57, ptr %58, align 1, !tbaa !7
  %exitcond.not.i = icmp eq i64 %54, 16
  br i1 %exitcond.not.i, label %cfbr_encrypt_block.exit, label %52, !llvm.loop !19

cfbr_encrypt_block.exit:                          ; preds = %52
  call void @llvm.lifetime.end.p0(i64 33, ptr nonnull %9) #4
  %59 = getelementptr inbounds nuw i8, ptr %1, i64 %40
  %60 = load i8, ptr %59, align 1, !tbaa !7
  %61 = zext i8 %60 to i32
  %62 = xor i32 %47, -1
  %63 = and i32 %61, %62
  %64 = and i8 %51, -128
  %65 = zext i8 %64 to i32
  %66 = lshr exact i32 %65, %45
  %67 = or i32 %63, %66
  %68 = trunc nuw i32 %67 to i8
  store i8 %68, ptr %59, align 1, !tbaa !7
  %69 = add nuw i64 %.016, 1
  %exitcond.not = icmp eq i64 %69, %2
  br i1 %exitcond.not, label %._crit_edge, label %.lr.ph.split, !llvm.loop !20

._crit_edge:                                      ; preds = %cfbr_encrypt_block.exit, %cfbr_encrypt_block.exit.us, %8
  ret void
}